#include <math.h>
#include <stdio.h>
#include <stdlib.h>
#include <string.h>

void main()
{
	int n,a[300],i,j,t=0;
	scanf("%d",&n);
	for(i=0;i<n;i++)
		scanf("%d",&a[i]);
	for(i=0;i<n;i++)
	{
		for(j=i+1;j<n;j++)
		{
			if(a[i]==a[j])
			{
				a[j]=14543;
			}
		}
	}
	for(i=0;i<n;i++)
	{
		if(a[i]!=14543)
		{
			if(t==0)
			{printf("%d",a[i]);t=1;}
			else
			{printf(",%d",a[i]);}
		}
	}
}